; ModuleID = '22/563.c'
source_filename = "22/563.c"
target datalayout = "e-m:e-p270:32:32-p271:32:32-p272:64:64-i64:64-f80:128-n8:16:32:64-S128"
target triple = "x86_64-pc-linux-gnu"

@.str = private unnamed_addr constant [3 x i8] c"%d\00", align 1
@.str.1 = private unnamed_addr constant [3 x i8] c"%c\00", align 1
@.str.2 = private unnamed_addr constant [3 x i8] c"No\00", align 1

; Function Attrs: noinline nounwind uwtable
define dso_local i32 @main() #0 {
  %1 = alloca i32, align 4
  %2 = alloca i32, align 4
  %3 = alloca i32, align 4
  %4 = alloca i32, align 4
  %5 = alloca i32, align 4
  %6 = alloca [100 x i32], align 16
  %7 = alloca i8, align 1
  store i32 0, i32* %1, align 4
  store i32 1, i32* %3, align 4
  %8 = getelementptr inbounds [100 x i32], [100 x i32]* %6, i64 0, i64 0
  %9 = call i32 (i8*, ...) @__isoc99_scanf(i8* getelementptr inbounds ([3 x i8], [3 x i8]* @.str, i64 0, i64 0), i32* %8)
  br label %10

10:                                               ; preds = %15, %0
  %11 = call i32 (i8*, ...) @__isoc99_scanf(i8* getelementptr inbounds ([3 x i8], [3 x i8]* @.str.1, i64 0, i64 0), i8* %7)
  %12 = load i8, i8* %7, align 1
  %13 = sext i8 %12 to i32
  %14 = icmp eq i32 %13, 44
  br i1 %14, label %15, label %22

15:                                               ; preds = %10
  %16 = load i32, i32* %3, align 4
  %17 = sext i32 %16 to i64
  %18 = getelementptr inbounds [100 x i32], [100 x i32]* %6, i64 0, i64 %17
  %19 = call i32 (i8*, ...) @__isoc99_scanf(i8* getelementptr inbounds ([3 x i8], [3 x i8]* @.str, i64 0, i64 0), i32* %18)
  %20 = load i32, i32* %3, align 4
  %21 = add nsw i32 %20, 1
  store i32 %21, i32* %3, align 4
  br label %10

22:                                               ; preds = %10
  %23 = load i32, i32* %3, align 4
  %24 = icmp eq i32 %23, 1
  br i1 %24, label %25, label %27

25:                                               ; preds = %22
  %26 = call i32 (i8*, ...) @printf(i8* getelementptr inbounds ([3 x i8], [3 x i8]* @.str.2, i64 0, i64 0))
  br label %118

27:                                               ; preds = %22
  %28 = getelementptr inbounds [100 x i32], [100 x i32]* %6, i64 0, i64 0
  %29 = load i32, i32* %28, align 16
  store i32 %29, i32* %4, align 4
  %30 = getelementptr inbounds [100 x i32], [100 x i32]* %6, i64 0, i64 0
  %31 = load i32, i32* %30, align 16
  store i32 %31, i32* %5, align 4
  %32 = getelementptr inbounds [100 x i32], [100 x i32]* %6, i64 0, i64 1
  %33 = load i32, i32* %32, align 4
  %34 = getelementptr inbounds [100 x i32], [100 x i32]* %6, i64 0, i64 0
  %35 = load i32, i32* %34, align 16
  %36 = icmp sge i32 %33, %35
  br i1 %36, label %37, label %40

37:                                               ; preds = %27
  %38 = getelementptr inbounds [100 x i32], [100 x i32]* %6, i64 0, i64 1
  %39 = load i32, i32* %38, align 4
  store i32 %39, i32* %4, align 4
  br label %43

40:                                               ; preds = %27
  %41 = getelementptr inbounds [100 x i32], [100 x i32]* %6, i64 0, i64 1
  %42 = load i32, i32* %41, align 4
  store i32 %42, i32* %5, align 4
  br label %43

43:                                               ; preds = %40, %37
  store i32 2, i32* %2, align 4
  br label %44

44:                                               ; preds = %105, %43
  %45 = load i32, i32* %2, align 4
  %46 = load i32, i32* %3, align 4
  %47 = icmp slt i32 %45, %46
  br i1 %47, label %48, label %108

48:                                               ; preds = %44
  %49 = load i32, i32* %4, align 4
  %50 = load i32, i32* %5, align 4
  %51 = icmp eq i32 %49, %50
  br i1 %51, label %52, label %70

52:                                               ; preds = %48
  %53 = load i32, i32* %2, align 4
  %54 = sext i32 %53 to i64
  %55 = getelementptr inbounds [100 x i32], [100 x i32]* %6, i64 0, i64 %54
  %56 = load i32, i32* %55, align 4
  %57 = load i32, i32* %4, align 4
  %58 = icmp sgt i32 %56, %57
  br i1 %58, label %59, label %64

59:                                               ; preds = %52
  %60 = load i32, i32* %2, align 4
  %61 = sext i32 %60 to i64
  %62 = getelementptr inbounds [100 x i32], [100 x i32]* %6, i64 0, i64 %61
  %63 = load i32, i32* %62, align 4
  store i32 %63, i32* %4, align 4
  br label %69

64:                                               ; preds = %52
  %65 = load i32, i32* %2, align 4
  %66 = sext i32 %65 to i64
  %67 = getelementptr inbounds [100 x i32], [100 x i32]* %6, i64 0, i64 %66
  %68 = load i32, i32* %67, align 4
  store i32 %68, i32* %5, align 4
  br label %69

69:                                               ; preds = %64, %59
  br label %104

70:                                               ; preds = %48
  %71 = load i32, i32* %2, align 4
  %72 = sext i32 %71 to i64
  %73 = getelementptr inbounds [100 x i32], [100 x i32]* %6, i64 0, i64 %72
  %74 = load i32, i32* %73, align 4
  %75 = load i32, i32* %4, align 4
  %76 = icmp sgt i32 %74, %75
  br i1 %76, label %77, label %83

77:                                               ; preds = %70
  %78 = load i32, i32* %4, align 4
  store i32 %78, i32* %5, align 4
  %79 = load i32, i32* %2, align 4
  %80 = sext i32 %79 to i64
  %81 = getelementptr inbounds [100 x i32], [100 x i32]* %6, i64 0, i64 %80
  %82 = load i32, i32* %81, align 4
  store i32 %82, i32* %4, align 4
  br label %103

83:                                               ; preds = %70
  %84 = load i32, i32* %2, align 4
  %85 = sext i32 %84 to i64
  %86 = getelementptr inbounds [100 x i32], [100 x i32]* %6, i64 0, i64 %85
  %87 = load i32, i32* %86, align 4
  %88 = load i32, i32* %4, align 4
  %89 = icmp slt i32 %87, %88
  br i1 %89, label %90, label %102

90:                                               ; preds = %83
  %91 = load i32, i32* %2, align 4
  %92 = sext i32 %91 to i64
  %93 = getelementptr inbounds [100 x i32], [100 x i32]* %6, i64 0, i64 %92
  %94 = load i32, i32* %93, align 4
  %95 = load i32, i32* %5, align 4
  %96 = icmp sgt i32 %94, %95
  br i1 %96, label %97, label %102

97:                                               ; preds = %90
  %98 = load i32, i32* %2, align 4
  %99 = sext i32 %98 to i64
  %100 = getelementptr inbounds [100 x i32], [100 x i32]* %6, i64 0, i64 %99
  %101 = load i32, i32* %100, align 4
  store i32 %101, i32* %5, align 4
  br label %102

102:                                              ; preds = %97, %90, %83
  br label %103

103:                                              ; preds = %102, %77
  br label %104

104:                                              ; preds = %103, %69
  br label %105

105:                                              ; preds = %104
  %106 = load i32, i32* %2, align 4
  %107 = add nsw i32 %106, 1
  store i32 %107, i32* %2, align 4
  br label %44

108:                                              ; preds = %44
  %109 = load i32, i32* %4, align 4
  %110 = load i32, i32* %5, align 4
  %111 = icmp eq i32 %109, %110
  br i1 %111, label %112, label %114

112:                                              ; preds = %108
  %113 = call i32 (i8*, ...) @printf(i8* getelementptr inbounds ([3 x i8], [3 x i8]* @.str.2, i64 0, i64 0))
  br label %117

114:                                              ; preds = %108
  %115 = load i32, i32* %5, align 4
  %116 = call i32 (i8*, ...) @printf(i8* getelementptr inbounds ([3 x i8], [3 x i8]* @.str, i64 0, i64 0), i32 %115)
  br label %117

117:                                              ; preds = %114, %112
  br label %118

118:                                              ; preds = %117, %25
  %119 = load i32, i32* %1, align 4
  ret i32 %119
}

declare dso_local i32 @__isoc99_scanf(i8*, ...) #1

declare dso_local i32 @printf(i8*, ...) #1


!llvm.module.flags = !{!0}
!llvm.ident = !{!1}

!0 = !{i32 1, !"wchar_size", i32 4}
!1 = !{!"clang version 10.0.0-4ubuntu1 "}
